target datalayout = "e-m:e-p270:32:32-p271:32:32-p272:64:64-i64:64-i128:128-f80:128-n8:16:32:64-S128"
target triple = "x86_64-pc-linux-gnu"

%struct.JSValue = type { %union.JSValueUnion, i64 }
%union.JSValueUnion = type { double }

@.str.208 = private unnamed_addr constant [20 x i8] c"could not load '%s'\00", align 1

; Function Attrs: nounwind uwtable
define internal ptr @JS_ToCString(ptr noundef %0, i64 %1, i64 %2) #0 {
  %4 = alloca %struct.JSValue, align 8
  %5 = alloca ptr, align 8
  %6 = getelementptr inbounds { i64, i64 }, ptr %4, i32 0, i32 0
  store i64 %1, ptr %6, align 8
  %7 = getelementptr inbounds { i64, i64 }, ptr %4, i32 0, i32 1
  store i64 %2, ptr %7, align 8
  store ptr %0, ptr %5, align 8
  %8 = load ptr, ptr %5, align 8
  %9 = getelementptr inbounds { i64, i64 }, ptr %4, i32 0, i32 0
  %10 = load i64, ptr %9, align 8
  %11 = getelementptr inbounds { i64, i64 }, ptr %4, i32 0, i32 1
  %12 = load i64, ptr %11, align 8
  %13 = call ptr @JS_ToCStringLen2(ptr noundef %8, ptr noundef null, i64 %10, i64 %12, i32 noundef 0)
  ret ptr %13
}

; Function Attrs: nounwind uwtable
define internal { i64, i64 } @js_loadScript(ptr noundef %0, i64 %1, i64 %2, i32 noundef %3, ptr noundef %4) #0 {
  %6 = alloca %struct.JSValue, align 8
  %7 = alloca %struct.JSValue, align 8
  %8 = alloca ptr, align 8
  %9 = alloca i32, align 4
  %10 = alloca ptr, align 8
  %11 = alloca ptr, align 8
  %12 = alloca ptr, align 8
  %13 = alloca %struct.JSValue, align 8
  %14 = alloca i64, align 8
  %15 = alloca %struct.JSValue, align 8
  %16 = alloca %struct.JSValue, align 8
  %17 = getelementptr inbounds { i64, i64 }, ptr %7, i32 0, i32 0
  store i64 %1, ptr %17, align 8
  %18 = getelementptr inbounds { i64, i64 }, ptr %7, i32 0, i32 1
  store i64 %2, ptr %18, align 8
  store ptr %0, ptr %8, align 8
  store i32 %3, ptr %9, align 4
  store ptr %4, ptr %10, align 8
  %19 = load ptr, ptr %8, align 8
  %20 = load ptr, ptr %10, align 8
  %21 = getelementptr %struct.JSValue, ptr %20, i64 0
  %22 = getelementptr inbounds { i64, i64 }, ptr %21, i32 0, i32 0
  %23 = load i64, ptr %22, align 8
  %24 = getelementptr inbounds { i64, i64 }, ptr %21, i32 0, i32 1
  %25 = load i64, ptr %24, align 8
  %26 = call ptr @JS_ToCString(ptr noundef %19, i64 %23, i64 %25)
  store ptr %26, ptr %12, align 8
  %27 = load ptr, ptr %12, align 8
  %28 = icmp ne ptr %27, null
  br i1 %28, label %32, label %29

29:                                               ; preds = %5
  %30 = getelementptr inbounds %struct.JSValue, ptr %6, i32 0, i32 0
  store i32 0, ptr %30, align 8
  %31 = getelementptr inbounds %struct.JSValue, ptr %6, i32 0, i32 1
  store i64 6, ptr %31, align 8
  br label %64

32:                                               ; preds = %5
  %33 = load ptr, ptr %8, align 8
  %34 = load ptr, ptr %12, align 8
  %35 = call ptr @js_load_file(ptr noundef %33, ptr noundef %14, ptr noundef %34)
  store ptr %35, ptr %11, align 8
  %36 = load ptr, ptr %11, align 8
  %37 = icmp ne ptr %36, null
  br i1 %37, label %50, label %38

38:                                               ; preds = %32
  %39 = load ptr, ptr %8, align 8
  %40 = load ptr, ptr %12, align 8
  %41 = call { i64, i64 } (ptr, ptr, ...) @JS_ThrowReferenceError(ptr noundef %39, ptr noundef @.str.208, ptr noundef %40)
  %42 = getelementptr inbounds { i64, i64 }, ptr %15, i32 0, i32 0
  %43 = extractvalue { i64, i64 } %41, 0
  store i64 %43, ptr %42, align 8
  %44 = getelementptr inbounds { i64, i64 }, ptr %15, i32 0, i32 1
  %45 = extractvalue { i64, i64 } %41, 1
  store i64 %45, ptr %44, align 8
  %46 = load ptr, ptr %8, align 8
  %47 = load ptr, ptr %12, align 8
  call void @JS_FreeCString(ptr noundef %46, ptr noundef %47)
  %48 = getelementptr inbounds %struct.JSValue, ptr %6, i32 0, i32 0
  store i32 0, ptr %48, align 8
  %49 = getelementptr inbounds %struct.JSValue, ptr %6, i32 0, i32 1
  store i64 6, ptr %49, align 8
  br label %64

50:                                               ; preds = %32
  %51 = load ptr, ptr %8, align 8
  %52 = load ptr, ptr %11, align 8
  %53 = load i64, ptr %14, align 8
  %54 = load ptr, ptr %12, align 8
  %55 = call { i64, i64 } @JS_Eval(ptr noundef %51, ptr noundef %52, i64 noundef %53, ptr noundef %54, i32 noundef 0)
  %56 = getelementptr inbounds { i64, i64 }, ptr %16, i32 0, i32 0
  %57 = extractvalue { i64, i64 } %55, 0
  store i64 %57, ptr %56, align 8
  %58 = getelementptr inbounds { i64, i64 }, ptr %16, i32 0, i32 1
  %59 = extractvalue { i64, i64 } %55, 1
  store i64 %59, ptr %58, align 8
  call void @llvm.memcpy.p0.p0.i64(ptr align 8 %13, ptr align 8 %16, i64 16, i1 false)
  %60 = load ptr, ptr %8, align 8
  %61 = load ptr, ptr %11, align 8
  call void @js_free(ptr noundef %60, ptr noundef %61)
  %62 = load ptr, ptr %8, align 8
  %63 = load ptr, ptr %12, align 8
  call void @JS_FreeCString(ptr noundef %62, ptr noundef %63)
  call void @llvm.memcpy.p0.p0.i64(ptr align 8 %6, ptr align 8 %13, i64 16, i1 false)
  br label %64

64:                                               ; preds = %50, %38, %29
  %65 = load { i64, i64 }, ptr %6, align 8
  ret { i64, i64 } %65
}