; Function Attrs: nounwind uwtable
define internal { i64, i64 } @js_loadScript(ptr noundef %0, i64 %1, i64 %2, i32 %3, ptr nocapture noundef readonly %4) #0 {
  %6 = alloca i64, align 8
  %7 = load i64, ptr %4, align 8
  %8 = getelementptr inbounds i8, ptr %4, i64 8
  %9 = load i64, ptr %8, align 8
  %10 = tail call ptr @JS_ToCStringLen2(ptr noundef %0, ptr noundef null, i64 %7, i64 %9, i32 noundef 0) #29
  %.not = icmp eq ptr %10, null
  br i1 %.not, label %21, label %11

11:                                               ; preds = %5
  %12 = call ptr @js_load_file(ptr noundef %0, ptr noundef nonnull %6, ptr noundef nonnull %10)
  %.not26 = icmp eq ptr %12, null
  br i1 %.not26, label %13, label %15

13:                                               ; preds = %11
  %14 = tail call { i64, i64 } (ptr, ptr, ...) @JS_ThrowReferenceError(ptr noundef %0, ptr noundef nonnull @.str.208, ptr noundef nonnull %10) #29
  tail call void @JS_FreeCString(ptr noundef %0, ptr noundef nonnull %10) #29
  br label %21

15:                                               ; preds = %11
  %16 = load i64, ptr %6, align 8
  %17 = tail call { i64, i64 } @JS_Eval(ptr noundef %0, ptr noundef nonnull %12, i64 noundef %16, ptr noundef nonnull %10, i32 noundef 0) #29
  %18 = extractvalue { i64, i64 } %17, 0
  %19 = extractvalue { i64, i64 } %17, 1
  tail call void @js_free(ptr noundef %0, ptr noundef nonnull %12) #29
  tail call void @JS_FreeCString(ptr noundef %0, ptr noundef nonnull %10) #29
  %.sroa.4.0.extract.shift = and i64 %18, -4294967296
  %20 = and i64 %18, 4294967295
  br label %21

21:                                               ; preds = %5, %15, %13
  %.sroa.022.0 = phi i64 [ %20, %15 ], [ 0, %13 ], [ 0, %5 ]
  %.sroa.4.sroa.0.0 = phi i64 [ %.sroa.4.0.extract.shift, %15 ], [ 0, %13 ], [ 0, %5 ]
  %.sroa.4.sroa.2.0 = phi i64 [ %19, %15 ], [ 6, %13 ], [ 6, %5 ]
  %.sroa.022.0.insert.insert = or disjoint i64 %.sroa.4.sroa.0.0, %.sroa.022.0
  %.fca.0.insert = insertvalue { i64, i64 } poison, i64 %.sroa.022.0.insert.insert, 0
  %.fca.1.insert = insertvalue { i64, i64 } %.fca.0.insert, i64 %.sroa.4.sroa.2.0, 1
  ret { i64, i64 } %.fca.1.insert
}